; Function Attrs: mustprogress nofree norecurse nosync nounwind willreturn memory(argmem: readwrite) uwtable
define void @_ZN10duckdb_lz420LZ4_resetStream_fastEPNS_12LZ4_stream_uE(ptr noundef captures(none) initializes((16384, 16400), (16408, 16412)) %0) local_unnamed_addr #7 {
  %2 = getelementptr inbounds nuw i8, ptr %0, i64 16404
  %3 = load i32, ptr %2, align 4, !tbaa !16
  switch i32 %3, label %.thread29.i [
    i32 0, label %._crit_edge.i
    i32 2, label %4
  ]

._crit_edge.i:                                    ; preds = %1
  %.phi.trans.insert.i = getelementptr inbounds nuw i8, ptr %0, i64 16400
  %.pre.i = load i32, ptr %.phi.trans.insert.i, align 8, !tbaa !8
  br label %9

4:                                                ; preds = %1
  %5 = getelementptr inbounds nuw i8, ptr %0, i64 16400
  %6 = load i32, ptr %5, align 8, !tbaa !8
  %7 = icmp ugt i32 %6, 1073741824
  br i1 %7, label %.thread29.i, label %9

.thread29.i:                                      ; preds = %1, %4
  tail call void @llvm.memset.p0.i64(ptr noundef nonnull align 8 dereferenceable(16384) %0, i8 0, i64 16384, i1 false)
  %8 = getelementptr inbounds nuw i8, ptr %0, i64 16400
  store i32 0, ptr %8, align 8, !tbaa !8
  store i32 0, ptr %2, align 4, !tbaa !16
  br label %_ZN10duckdb_lz4L16LZ4_prepareTableEPNS_21LZ4_stream_t_internalEiNS_11tableType_tE.exit

9:                                                ; preds = %4, %._crit_edge.i
  %10 = phi i32 [ %.pre.i, %._crit_edge.i ], [ %6, %4 ]
  %.not = icmp eq i32 %10, 0
  br i1 %.not, label %_ZN10duckdb_lz4L16LZ4_prepareTableEPNS_21LZ4_stream_t_internalEiNS_11tableType_tE.exit, label %11

11:                                               ; preds = %9
  %12 = getelementptr inbounds nuw i8, ptr %0, i64 16400
  %13 = add i32 %10, 65536
  store i32 %13, ptr %12, align 8, !tbaa !8
  br label %_ZN10duckdb_lz4L16LZ4_prepareTableEPNS_21LZ4_stream_t_internalEiNS_11tableType_tE.exit

_ZN10duckdb_lz4L16LZ4_prepareTableEPNS_21LZ4_stream_t_internalEiNS_11tableType_tE.exit: ; preds = %.thread29.i, %9, %11
  %14 = getelementptr inbounds nuw i8, ptr %0, i64 16384
  %15 = getelementptr inbounds nuw i8, ptr %0, i64 16408
  store i32 0, ptr %15, align 8, !tbaa !15
  tail call void @llvm.memset.p0.i64(ptr noundef nonnull align 8 dereferenceable(16) %14, i8 0, i64 16, i1 false)
  ret void
}